(lp0
(lp1
S'A'
p2
aS'X'
p3
aF0.14
aa(lp4
g2
aS'Y'
p5
aF0.168
aa(lp6
g2
aS'Z'
p7
aF0.2
aa(lp8
S'B'
p9
ag3
aF0.176
aa(lp10
g9
ag5
aF0.236
aa(lp11
g9
ag7
aF0.288
aa(lp12
S'C'
p13
ag3
aF0.292
aa(lp14
g13
ag5
aF0.376
aa(lp15
g13
ag7
aF0.46
aa.